; Function Attrs: nofree norecurse nosync nounwind memory(argmem: readwrite) uwtable
define hidden void @lj_dispatch_init_hotcount(ptr noundef captures(none) %0) local_unnamed_addr #0 {
  %2 = getelementptr inbounds nuw i8, ptr %0, i64 2396
  %3 = load i32, ptr %2, align 4, !tbaa !44
  %.tr = trunc i32 %3 to i16
  %4 = shl i16 %.tr, 1
  %5 = add i16 %4, -1
  %6 = getelementptr inbounds nuw i8, ptr %0, i64 3848
  br label %7

7:                                                ; preds = %1, %7
  %indvars.iv = phi i64 [ 0, %1 ], [ %indvars.iv.next, %7 ]
  %8 = getelementptr inbounds nuw i16, ptr %6, i64 %indvars.iv
  store i16 %5, ptr %8, align 2, !tbaa !4
  %indvars.iv.next = add nuw nsw i64 %indvars.iv, 1
  %exitcond.not = icmp eq i64 %indvars.iv.next, 64
  br i1 %exitcond.not, label %9, label %7, !llvm.loop !46

9:                                                ; preds = %7
  ret void
}